ccopy_reg
_reconstructor
p1
(csklearn.linear_model.base
LinearRegression
p2
c__builtin__
object
p3
NtRp4
(dp5
S'normalize'
p6
I00
sS'n_jobs'
p7
I1
sS'residues_'
p8
cnumpy.core.multiarray
scalar
p9
(cnumpy
dtype
p10
(S'f8'
I0
I1
tRp11
(I3
S'<'
NNNI-1
I-1
I0
tbS'\xc1;p[R%}A'
tRp12
sS'fit_intercept'
p13
I01
sS'coef_'
p14
cnumpy.core.multiarray
_reconstruct
p15
(cnumpy
ndarray
p16
(I0
tS'b'
tRp17
(I1
(I3
tg11
I00
S't_^\x87\xd3h\xf0\xbf\xe2Y\xfd\xd9\xe4\xd2\xf0?"\xa0\xbf\xd6\xc6%\x16\xc0'
tbsS'copy_X'
p18
I01
sS'rank_'
p19
I3
sS'intercept_'
p20
g9
(g11
S'F:\x87\xf8\x13\x1fc@'
tRp21
sS'singular_'
p22
g15
(g16
(I0
tS'b'
tRp23
(I1
(I3
tg11
I00
S'$b\xa4\xf2\xc8J\xcb@\x8b\xd8H\xd1\xe1\xba\xa4@\xb7@c\xfd\x05\x91q@'
tbsb.