ccopy_reg
_reconstructor
p1
(csklearn.linear_model.base
LinearRegression
p2
c__builtin__
object
p3
NtRp4
(dp5
S'normalize'
p6
I00
sS'n_jobs'
p7
I1
sS'residues_'
p8
cnumpy.core.multiarray
scalar
p9
(cnumpy
dtype
p10
(S'f8'
I0
I1
tRp11
(I3
S'<'
NNNI-1
I-1
I0
tbS'\xbcTv\xc8\xfelKA'
tRp12
sS'fit_intercept'
p13
I01
sS'coef_'
p14
cnumpy.core.multiarray
_reconstruct
p15
(cnumpy
ndarray
p16
(I0
tS'b'
tRp17
(I1
(I3
tg11
I00
S'\xe4\x91\xbb\x99\x16B\xe9\xbfa\xed\xc2\x0c\xcfV\xf2?\x85N\x01\xd9T\xf3 \xc0'
tbsS'copy_X'
p18
I01
sS'rank_'
p19
I3
sS'intercept_'
p20
g9
(g11
S'\x80\xa7TwY1p@'
tRp21
sS'singular_'
p22
g15
(g16
(I0
tS'b'
tRp23
(I1
(I3
tg11
I00
S'\xfd\xe0g\x0b\x0b\xa5\xb9@\xc6\x81\x1c@\x1d\xf2\x92@\xba\x03\xd6\xd7\x9e\xbdN@'
tbsb.